; ModuleID = '48/416.c'
source_filename = "48/416.c"
target datalayout = "e-m:e-p270:32:32-p271:32:32-p272:64:64-i64:64-f80:128-n8:16:32:64-S128"
target triple = "x86_64-pc-linux-gnu"

@.str = private unnamed_addr constant [6 x i8] c"%d %d\00", align 1
@.str.1 = private unnamed_addr constant [3 x i8] c"%d\00", align 1
@.str.2 = private unnamed_addr constant [4 x i8] c" %d\00", align 1
@.str.3 = private unnamed_addr constant [2 x i8] c"\0A\00", align 1

; Function Attrs: noinline nounwind uwtable
define dso_local i32 @main() #0 {
  %1 = alloca i32, align 4
  %2 = alloca i32, align 4
  %3 = alloca i32, align 4
  %4 = alloca [5 x [11 x [11 x i32]]], align 16
  %5 = alloca i32, align 4
  %6 = alloca i32, align 4
  %7 = alloca i32, align 4
  store i32 0, i32* %1, align 4
  %8 = bitcast [5 x [11 x [11 x i32]]]* %4 to i8*
  call void @llvm.memset.p0i8.i64(i8* align 16 %8, i8 0, i64 2420, i1 false)
  %9 = call i32 (i8*, ...) @__isoc99_scanf(i8* getelementptr inbounds ([6 x i8], [6 x i8]* @.str, i64 0, i64 0), i32* %2, i32* %3)
  %10 = load i32, i32* %2, align 4
  %11 = getelementptr inbounds [5 x [11 x [11 x i32]]], [5 x [11 x [11 x i32]]]* %4, i64 0, i64 0
  %12 = getelementptr inbounds [11 x [11 x i32]], [11 x [11 x i32]]* %11, i64 0, i64 5
  %13 = getelementptr inbounds [11 x i32], [11 x i32]* %12, i64 0, i64 5
  store i32 %10, i32* %13, align 4
  store i32 1, i32* %5, align 4
  br label %14

14:                                               ; preds = %173, %0
  %15 = load i32, i32* %5, align 4
  %16 = load i32, i32* %3, align 4
  %17 = add nsw i32 %16, 1
  %18 = icmp slt i32 %15, %17
  br i1 %18, label %19, label %176

19:                                               ; preds = %14
  %20 = load i32, i32* %5, align 4
  %21 = sub nsw i32 5, %20
  store i32 %21, i32* %6, align 4
  br label %22

22:                                               ; preds = %169, %19
  %23 = load i32, i32* %6, align 4
  %24 = load i32, i32* %5, align 4
  %25 = add nsw i32 5, %24
  %26 = icmp sle i32 %23, %25
  br i1 %26, label %27, label %172

27:                                               ; preds = %22
  %28 = load i32, i32* %5, align 4
  %29 = sub nsw i32 5, %28
  store i32 %29, i32* %7, align 4
  br label %30

30:                                               ; preds = %165, %27
  %31 = load i32, i32* %7, align 4
  %32 = load i32, i32* %5, align 4
  %33 = add nsw i32 5, %32
  %34 = icmp sle i32 %31, %33
  br i1 %34, label %35, label %168

35:                                               ; preds = %30
  %36 = load i32, i32* %5, align 4
  %37 = sub nsw i32 %36, 1
  %38 = sext i32 %37 to i64
  %39 = getelementptr inbounds [5 x [11 x [11 x i32]]], [5 x [11 x [11 x i32]]]* %4, i64 0, i64 %38
  %40 = load i32, i32* %6, align 4
  %41 = sext i32 %40 to i64
  %42 = getelementptr inbounds [11 x [11 x i32]], [11 x [11 x i32]]* %39, i64 0, i64 %41
  %43 = load i32, i32* %7, align 4
  %44 = sext i32 %43 to i64
  %45 = getelementptr inbounds [11 x i32], [11 x i32]* %42, i64 0, i64 %44
  %46 = load i32, i32* %45, align 4
  %47 = mul nsw i32 2, %46
  %48 = load i32, i32* %5, align 4
  %49 = sub nsw i32 %48, 1
  %50 = sext i32 %49 to i64
  %51 = getelementptr inbounds [5 x [11 x [11 x i32]]], [5 x [11 x [11 x i32]]]* %4, i64 0, i64 %50
  %52 = load i32, i32* %6, align 4
  %53 = sext i32 %52 to i64
  %54 = getelementptr inbounds [11 x [11 x i32]], [11 x [11 x i32]]* %51, i64 0, i64 %53
  %55 = load i32, i32* %7, align 4
  %56 = sub nsw i32 %55, 1
  %57 = sext i32 %56 to i64
  %58 = getelementptr inbounds [11 x i32], [11 x i32]* %54, i64 0, i64 %57
  %59 = load i32, i32* %58, align 4
  %60 = add nsw i32 %47, %59
  %61 = load i32, i32* %5, align 4
  %62 = sub nsw i32 %61, 1
  %63 = sext i32 %62 to i64
  %64 = getelementptr inbounds [5 x [11 x [11 x i32]]], [5 x [11 x [11 x i32]]]* %4, i64 0, i64 %63
  %65 = load i32, i32* %6, align 4
  %66 = sext i32 %65 to i64
  %67 = getelementptr inbounds [11 x [11 x i32]], [11 x [11 x i32]]* %64, i64 0, i64 %66
  %68 = load i32, i32* %7, align 4
  %69 = add nsw i32 %68, 1
  %70 = sext i32 %69 to i64
  %71 = getelementptr inbounds [11 x i32], [11 x i32]* %67, i64 0, i64 %70
  %72 = load i32, i32* %71, align 4
  %73 = add nsw i32 %60, %72
  %74 = load i32, i32* %5, align 4
  %75 = sub nsw i32 %74, 1
  %76 = sext i32 %75 to i64
  %77 = getelementptr inbounds [5 x [11 x [11 x i32]]], [5 x [11 x [11 x i32]]]* %4, i64 0, i64 %76
  %78 = load i32, i32* %6, align 4
  %79 = sub nsw i32 %78, 1
  %80 = sext i32 %79 to i64
  %81 = getelementptr inbounds [11 x [11 x i32]], [11 x [11 x i32]]* %77, i64 0, i64 %80
  %82 = load i32, i32* %7, align 4
  %83 = sub nsw i32 %82, 1
  %84 = sext i32 %83 to i64
  %85 = getelementptr inbounds [11 x i32], [11 x i32]* %81, i64 0, i64 %84
  %86 = load i32, i32* %85, align 4
  %87 = add nsw i32 %73, %86
  %88 = load i32, i32* %5, align 4
  %89 = sub nsw i32 %88, 1
  %90 = sext i32 %89 to i64
  %91 = getelementptr inbounds [5 x [11 x [11 x i32]]], [5 x [11 x [11 x i32]]]* %4, i64 0, i64 %90
  %92 = load i32, i32* %6, align 4
  %93 = sub nsw i32 %92, 1
  %94 = sext i32 %93 to i64
  %95 = getelementptr inbounds [11 x [11 x i32]], [11 x [11 x i32]]* %91, i64 0, i64 %94
  %96 = load i32, i32* %7, align 4
  %97 = add nsw i32 %96, 1
  %98 = sext i32 %97 to i64
  %99 = getelementptr inbounds [11 x i32], [11 x i32]* %95, i64 0, i64 %98
  %100 = load i32, i32* %99, align 4
  %101 = add nsw i32 %87, %100
  %102 = load i32, i32* %5, align 4
  %103 = sub nsw i32 %102, 1
  %104 = sext i32 %103 to i64
  %105 = getelementptr inbounds [5 x [11 x [11 x i32]]], [5 x [11 x [11 x i32]]]* %4, i64 0, i64 %104
  %106 = load i32, i32* %6, align 4
  %107 = sub nsw i32 %106, 1
  %108 = sext i32 %107 to i64
  %109 = getelementptr inbounds [11 x [11 x i32]], [11 x [11 x i32]]* %105, i64 0, i64 %108
  %110 = load i32, i32* %7, align 4
  %111 = sext i32 %110 to i64
  %112 = getelementptr inbounds [11 x i32], [11 x i32]* %109, i64 0, i64 %111
  %113 = load i32, i32* %112, align 4
  %114 = add nsw i32 %101, %113
  %115 = load i32, i32* %5, align 4
  %116 = sub nsw i32 %115, 1
  %117 = sext i32 %116 to i64
  %118 = getelementptr inbounds [5 x [11 x [11 x i32]]], [5 x [11 x [11 x i32]]]* %4, i64 0, i64 %117
  %119 = load i32, i32* %6, align 4
  %120 = add nsw i32 %119, 1
  %121 = sext i32 %120 to i64
  %122 = getelementptr inbounds [11 x [11 x i32]], [11 x [11 x i32]]* %118, i64 0, i64 %121
  %123 = load i32, i32* %7, align 4
  %124 = sext i32 %123 to i64
  %125 = getelementptr inbounds [11 x i32], [11 x i32]* %122, i64 0, i64 %124
  %126 = load i32, i32* %125, align 4
  %127 = add nsw i32 %114, %126
  %128 = load i32, i32* %5, align 4
  %129 = sub nsw i32 %128, 1
  %130 = sext i32 %129 to i64
  %131 = getelementptr inbounds [5 x [11 x [11 x i32]]], [5 x [11 x [11 x i32]]]* %4, i64 0, i64 %130
  %132 = load i32, i32* %6, align 4
  %133 = add nsw i32 %132, 1
  %134 = sext i32 %133 to i64
  %135 = getelementptr inbounds [11 x [11 x i32]], [11 x [11 x i32]]* %131, i64 0, i64 %134
  %136 = load i32, i32* %7, align 4
  %137 = sub nsw i32 %136, 1
  %138 = sext i32 %137 to i64
  %139 = getelementptr inbounds [11 x i32], [11 x i32]* %135, i64 0, i64 %138
  %140 = load i32, i32* %139, align 4
  %141 = add nsw i32 %127, %140
  %142 = load i32, i32* %5, align 4
  %143 = sub nsw i32 %142, 1
  %144 = sext i32 %143 to i64
  %145 = getelementptr inbounds [5 x [11 x [11 x i32]]], [5 x [11 x [11 x i32]]]* %4, i64 0, i64 %144
  %146 = load i32, i32* %6, align 4
  %147 = add nsw i32 %146, 1
  %148 = sext i32 %147 to i64
  %149 = getelementptr inbounds [11 x [11 x i32]], [11 x [11 x i32]]* %145, i64 0, i64 %148
  %150 = load i32, i32* %7, align 4
  %151 = add nsw i32 %150, 1
  %152 = sext i32 %151 to i64
  %153 = getelementptr inbounds [11 x i32], [11 x i32]* %149, i64 0, i64 %152
  %154 = load i32, i32* %153, align 4
  %155 = add nsw i32 %141, %154
  %156 = load i32, i32* %5, align 4
  %157 = sext i32 %156 to i64
  %158 = getelementptr inbounds [5 x [11 x [11 x i32]]], [5 x [11 x [11 x i32]]]* %4, i64 0, i64 %157
  %159 = load i32, i32* %6, align 4
  %160 = sext i32 %159 to i64
  %161 = getelementptr inbounds [11 x [11 x i32]], [11 x [11 x i32]]* %158, i64 0, i64 %160
  %162 = load i32, i32* %7, align 4
  %163 = sext i32 %162 to i64
  %164 = getelementptr inbounds [11 x i32], [11 x i32]* %161, i64 0, i64 %163
  store i32 %155, i32* %164, align 4
  br label %165

165:                                              ; preds = %35
  %166 = load i32, i32* %7, align 4
  %167 = add nsw i32 %166, 1
  store i32 %167, i32* %7, align 4
  br label %30

168:                                              ; preds = %30
  br label %169

169:                                              ; preds = %168
  %170 = load i32, i32* %6, align 4
  %171 = add nsw i32 %170, 1
  store i32 %171, i32* %6, align 4
  br label %22

172:                                              ; preds = %22
  br label %173

173:                                              ; preds = %172
  %174 = load i32, i32* %5, align 4
  %175 = add nsw i32 %174, 1
  store i32 %175, i32* %5, align 4
  br label %14

176:                                              ; preds = %14
  store i32 1, i32* %5, align 4
  br label %177

177:                                              ; preds = %210, %176
  %178 = load i32, i32* %5, align 4
  %179 = icmp slt i32 %178, 10
  br i1 %179, label %180, label %213

180:                                              ; preds = %177
  %181 = load i32, i32* %3, align 4
  %182 = sext i32 %181 to i64
  %183 = getelementptr inbounds [5 x [11 x [11 x i32]]], [5 x [11 x [11 x i32]]]* %4, i64 0, i64 %182
  %184 = load i32, i32* %5, align 4
  %185 = sext i32 %184 to i64
  %186 = getelementptr inbounds [11 x [11 x i32]], [11 x [11 x i32]]* %183, i64 0, i64 %185
  %187 = getelementptr inbounds [11 x i32], [11 x i32]* %186, i64 0, i64 1
  %188 = load i32, i32* %187, align 4
  %189 = call i32 (i8*, ...) @printf(i8* getelementptr inbounds ([3 x i8], [3 x i8]* @.str.1, i64 0, i64 0), i32 %188)
  store i32 2, i32* %6, align 4
  br label %190

190:                                              ; preds = %205, %180
  %191 = load i32, i32* %6, align 4
  %192 = icmp slt i32 %191, 10
  br i1 %192, label %193, label %208

193:                                              ; preds = %190
  %194 = load i32, i32* %3, align 4
  %195 = sext i32 %194 to i64
  %196 = getelementptr inbounds [5 x [11 x [11 x i32]]], [5 x [11 x [11 x i32]]]* %4, i64 0, i64 %195
  %197 = load i32, i32* %5, align 4
  %198 = sext i32 %197 to i64
  %199 = getelementptr inbounds [11 x [11 x i32]], [11 x [11 x i32]]* %196, i64 0, i64 %198
  %200 = load i32, i32* %6, align 4
  %201 = sext i32 %200 to i64
  %202 = getelementptr inbounds [11 x i32], [11 x i32]* %199, i64 0, i64 %201
  %203 = load i32, i32* %202, align 4
  %204 = call i32 (i8*, ...) @printf(i8* getelementptr inbounds ([4 x i8], [4 x i8]* @.str.2, i64 0, i64 0), i32 %203)
  br label %205

205:                                              ; preds = %193
  %206 = load i32, i32* %6, align 4
  %207 = add nsw i32 %206, 1
  store i32 %207, i32* %6, align 4
  br label %190

208:                                              ; preds = %190
  %209 = call i32 (i8*, ...) @printf(i8* getelementptr inbounds ([2 x i8], [2 x i8]* @.str.3, i64 0, i64 0))
  br label %210

210:                                              ; preds = %208
  %211 = load i32, i32* %5, align 4
  %212 = add nsw i32 %211, 1
  store i32 %212, i32* %5, align 4
  br label %177

213:                                              ; preds = %177
  %214 = load i32, i32* %1, align 4
  ret i32 %214
}

; Function Attrs: argmemonly nounwind willreturn
declare void @llvm.memset.p0i8.i64(i8* nocapture writeonly, i8, i64, i1 immarg) #1

declare dso_local i32 @__isoc99_scanf(i8*, ...) #2

declare dso_local i32 @printf(i8*, ...) #2


!llvm.module.flags = !{!0}
!llvm.ident = !{!1}

!0 = !{i32 1, !"wchar_size", i32 4}
!1 = !{!"clang version 10.0.0-4ubuntu1 "}
